target datalayout = "e-m:e-p270:32:32-p271:32:32-p272:64:64-i64:64-i128:128-f80:128-n8:16:32:64-S128"
target triple = "x86_64-pc-linux-gnu"

%struct.Kit_DsdNtk_t_ = type { i16, i16, i16, i16, ptr, ptr, ptr }
%struct.Kit_DsdObj_t_ = type { i32, [0 x i16] }

@.str.2 = private unnamed_addr constant [7 x i8] c"Const1\00", align 1
@.str.9 = private unnamed_addr constant [3 x i8] c"%s\00", align 1

; Function Attrs: inlinehint nounwind uwtable
define internal i32 @Abc_Lit2Var(i32 noundef %0) #4 {
  %2 = alloca i32, align 4
  store i32 %0, ptr %2, align 4, !tbaa !3
  %3 = load i32, ptr %2, align 4, !tbaa !3
  %4 = ashr i32 %3, 1
  ret i32 %4
}

; Function Attrs: inlinehint nounwind uwtable
define internal i32 @Abc_LitIsCompl(i32 noundef %0) #4 {
  %2 = alloca i32, align 4
  store i32 %0, ptr %2, align 4, !tbaa !3
  %3 = load i32, ptr %2, align 4, !tbaa !3
  %4 = and i32 %3, 1
  ret i32 %4
}

; Function Attrs: nounwind uwtable
define ptr @Kit_DsdWriteHex(ptr noundef %0, ptr noundef %1, i32 noundef %2) #0 {
  %4 = alloca ptr, align 8
  %5 = alloca ptr, align 8
  %6 = alloca i32, align 4
  %7 = alloca i32, align 4
  %8 = alloca i32, align 4
  %9 = alloca i32, align 4
  store ptr %0, ptr %4, align 8, !tbaa !54
  store ptr %1, ptr %5, align 8, !tbaa !25
  store i32 %2, ptr %6, align 4, !tbaa !3
  call void @llvm.lifetime.start.p0(i64 4, ptr %7) #9
  call void @llvm.lifetime.start.p0(i64 4, ptr %8) #9
  call void @llvm.lifetime.start.p0(i64 4, ptr %9) #9
  %10 = load i32, ptr %6, align 4, !tbaa !3
  %11 = shl i32 1, %10
  %12 = sdiv i32 %11, 4
  store i32 %12, ptr %7, align 4, !tbaa !3
  %13 = load i32, ptr %7, align 4, !tbaa !3
  %14 = sub nsw i32 %13, 1
  store i32 %14, ptr %9, align 4, !tbaa !3
  br label %15

15:                                               ; preds = %46, %3
  %16 = load i32, ptr %9, align 4, !tbaa !3
  %17 = icmp sge i32 %16, 0
  br i1 %17, label %18, label %49

18:                                               ; preds = %15
  %19 = load ptr, ptr %5, align 8, !tbaa !25
  %20 = load i32, ptr %9, align 4, !tbaa !3
  %21 = sdiv i32 %20, 8
  %22 = sext i32 %21 to i64
  %23 = getelementptr inbounds i32, ptr %19, i64 %22
  %24 = load i32, ptr %23, align 4, !tbaa !3
  %25 = load i32, ptr %9, align 4, !tbaa !3
  %26 = srem i32 %25, 8
  %27 = mul nsw i32 %26, 4
  %28 = lshr i32 %24, %27
  %29 = and i32 %28, 15
  store i32 %29, ptr %8, align 4, !tbaa !3
  %30 = load i32, ptr %8, align 4, !tbaa !3
  %31 = icmp slt i32 %30, 10
  br i1 %31, label %32, label %38

32:                                               ; preds = %18
  %33 = load i32, ptr %8, align 4, !tbaa !3
  %34 = add nsw i32 48, %33
  %35 = trunc i32 %34 to i8
  %36 = load ptr, ptr %4, align 8, !tbaa !54
  %37 = getelementptr inbounds nuw i8, ptr %36, i32 1
  store ptr %37, ptr %4, align 8, !tbaa !54
  store i8 %35, ptr %36, align 1, !tbaa !56
  br label %45

38:                                               ; preds = %18
  %39 = load i32, ptr %8, align 4, !tbaa !3
  %40 = add nsw i32 65, %39
  %41 = sub nsw i32 %40, 10
  %42 = trunc i32 %41 to i8
  %43 = load ptr, ptr %4, align 8, !tbaa !54
  %44 = getelementptr inbounds nuw i8, ptr %43, i32 1
  store ptr %44, ptr %4, align 8, !tbaa !54
  store i8 %42, ptr %43, align 1, !tbaa !56
  br label %45

45:                                               ; preds = %38, %32
  br label %46

46:                                               ; preds = %45
  %47 = load i32, ptr %9, align 4, !tbaa !3
  %48 = add nsw i32 %47, -1
  store i32 %48, ptr %9, align 4, !tbaa !3
  br label %15, !llvm.loop !57

49:                                               ; preds = %15
  %50 = load ptr, ptr %4, align 8, !tbaa !54
  call void @llvm.lifetime.end.p0(i64 4, ptr %9) #9
  call void @llvm.lifetime.end.p0(i64 4, ptr %8) #9
  call void @llvm.lifetime.end.p0(i64 4, ptr %7) #9
  ret ptr %50
}

; Function Attrs: inlinehint nounwind uwtable
define internal ptr @Kit_DsdObjTruth(ptr noundef %0) #4 {
  %2 = alloca ptr, align 8
  store ptr %0, ptr %2, align 8, !tbaa !39
  %3 = load ptr, ptr %2, align 8, !tbaa !39
  %4 = load i32, ptr %3, align 4
  %5 = lshr i32 %4, 6
  %6 = and i32 %5, 7
  %7 = icmp eq i32 %6, 5
  br i1 %7, label %8, label %18

8:                                                ; preds = %1
  %9 = load ptr, ptr %2, align 8, !tbaa !39
  %10 = getelementptr inbounds nuw %struct.Kit_DsdObj_t_, ptr %9, i32 0, i32 1
  %11 = getelementptr inbounds [0 x i16], ptr %10, i64 0, i64 0
  %12 = load ptr, ptr %2, align 8, !tbaa !39
  %13 = load i32, ptr %12, align 4
  %14 = lshr i32 %13, 10
  %15 = and i32 %14, 255
  %16 = sext i32 %15 to i64
  %17 = getelementptr inbounds i32, ptr %11, i64 %16
  br label %19

18:                                               ; preds = %1
  br label %19

19:                                               ; preds = %18, %8
  %20 = phi ptr [ %17, %8 ], [ null, %18 ]
  ret ptr %20
}

; Function Attrs: inlinehint nounwind uwtable
define internal ptr @Kit_DsdNtkObj(ptr noundef %0, i32 noundef %1) #4 {
  %3 = alloca ptr, align 8
  %4 = alloca i32, align 4
  store ptr %0, ptr %3, align 8, !tbaa !37
  store i32 %1, ptr %4, align 4, !tbaa !3
  %5 = load i32, ptr %4, align 4, !tbaa !3
  %6 = load ptr, ptr %3, align 8, !tbaa !37
  %7 = getelementptr inbounds nuw %struct.Kit_DsdNtk_t_, ptr %6, i32 0, i32 0
  %8 = load i16, ptr %7, align 8, !tbaa !41
  %9 = zext i16 %8 to i32
  %10 = icmp slt i32 %5, %9
  br i1 %10, label %11, label %12

11:                                               ; preds = %2
  br label %25

12:                                               ; preds = %2
  %13 = load ptr, ptr %3, align 8, !tbaa !37
  %14 = getelementptr inbounds nuw %struct.Kit_DsdNtk_t_, ptr %13, i32 0, i32 6
  %15 = load ptr, ptr %14, align 8, !tbaa !47
  %16 = load i32, ptr %4, align 4, !tbaa !3
  %17 = load ptr, ptr %3, align 8, !tbaa !37
  %18 = getelementptr inbounds nuw %struct.Kit_DsdNtk_t_, ptr %17, i32 0, i32 0
  %19 = load i16, ptr %18, align 8, !tbaa !41
  %20 = zext i16 %19 to i32
  %21 = sub nsw i32 %16, %20
  %22 = sext i32 %21 to i64
  %23 = getelementptr inbounds ptr, ptr %15, i64 %22
  %24 = load ptr, ptr %23, align 8, !tbaa !39
  br label %25

25:                                               ; preds = %12, %11
  %26 = phi ptr [ null, %11 ], [ %24, %12 ]
  ret ptr %26
}

; Function Attrs: nounwind uwtable
define ptr @Kit_DsdWrite_rec(ptr noundef %0, ptr noundef %1, i32 noundef %2) #0 {
  %4 = alloca ptr, align 8
  %5 = alloca ptr, align 8
  %6 = alloca ptr, align 8
  %7 = alloca i32, align 4
  %8 = alloca ptr, align 8
  %9 = alloca i32, align 4
  %10 = alloca i32, align 4
  %11 = alloca i8, align 1
  %12 = alloca i32, align 4
  store ptr %0, ptr %5, align 8, !tbaa !54
  store ptr %1, ptr %6, align 8, !tbaa !37
  store i32 %2, ptr %7, align 4, !tbaa !3
  call void @llvm.lifetime.start.p0(i64 8, ptr %8) #9
  call void @llvm.lifetime.start.p0(i64 4, ptr %9) #9
  call void @llvm.lifetime.start.p0(i64 4, ptr %10) #9
  call void @llvm.lifetime.start.p0(i64 1, ptr %11) #9
  %13 = load ptr, ptr %6, align 8, !tbaa !37
  %14 = load i32, ptr %7, align 4, !tbaa !3
  %15 = call ptr @Kit_DsdNtkObj(ptr noundef %13, i32 noundef %14)
  store ptr %15, ptr %8, align 8, !tbaa !39
  %16 = load ptr, ptr %8, align 8, !tbaa !39
  %17 = icmp eq ptr %16, null
  br i1 %17, label %18, label %25

18:                                               ; preds = %3
  %19 = load i32, ptr %7, align 4, !tbaa !3
  %20 = add nsw i32 97, %19
  %21 = trunc i32 %20 to i8
  %22 = load ptr, ptr %5, align 8, !tbaa !54
  %23 = getelementptr inbounds nuw i8, ptr %22, i32 1
  store ptr %23, ptr %5, align 8, !tbaa !54
  store i8 %21, ptr %22, align 1, !tbaa !56
  %24 = load ptr, ptr %5, align 8, !tbaa !54
  store ptr %24, ptr %4, align 8
  store i32 1, ptr %12, align 4
  br label %123

25:                                               ; preds = %3
  %26 = load ptr, ptr %8, align 8, !tbaa !39
  %27 = load i32, ptr %26, align 4
  %28 = lshr i32 %27, 6
  %29 = and i32 %28, 7
  %30 = icmp eq i32 %29, 1
  br i1 %30, label %31, label %36

31:                                               ; preds = %25
  %32 = load ptr, ptr %5, align 8, !tbaa !54
  %33 = call i32 (ptr, ptr, ...) @sprintf(ptr noundef %32, ptr noundef @.str.9, ptr noundef @.str.2) #9
  %34 = load ptr, ptr %5, align 8, !tbaa !54
  %35 = getelementptr inbounds nuw i8, ptr %34, i64 6
  store ptr %35, ptr %4, align 8
  store i32 1, ptr %12, align 4
  br label %123

36:                                               ; preds = %25
  %37 = load ptr, ptr %8, align 8, !tbaa !39
  %38 = load i32, ptr %37, align 4
  %39 = lshr i32 %38, 6
  %40 = and i32 %39, 7
  %41 = icmp eq i32 %40, 2
  br i1 %41, label %42, label %43

42:                                               ; preds = %36
  br label %43

43:                                               ; preds = %42, %36
  %44 = load ptr, ptr %8, align 8, !tbaa !39
  %45 = load i32, ptr %44, align 4
  %46 = lshr i32 %45, 6
  %47 = and i32 %46, 7
  %48 = icmp eq i32 %47, 3
  br i1 %48, label %49, label %50

49:                                               ; preds = %43
  store i8 42, ptr %11, align 1, !tbaa !56
  br label %59

50:                                               ; preds = %43
  %51 = load ptr, ptr %8, align 8, !tbaa !39
  %52 = load i32, ptr %51, align 4
  %53 = lshr i32 %52, 6
  %54 = and i32 %53, 7
  %55 = icmp eq i32 %54, 4
  br i1 %55, label %56, label %57

56:                                               ; preds = %50
  store i8 43, ptr %11, align 1, !tbaa !56
  br label %58

57:                                               ; preds = %50
  store i8 44, ptr %11, align 1, !tbaa !56
  br label %58

58:                                               ; preds = %57, %56
  br label %59

59:                                               ; preds = %58, %49
  %60 = load ptr, ptr %8, align 8, !tbaa !39
  %61 = load i32, ptr %60, align 4
  %62 = lshr i32 %61, 6
  %63 = and i32 %62, 7
  %64 = icmp eq i32 %63, 5
  br i1 %64, label %65, label %73

65:                                               ; preds = %59
  %66 = load ptr, ptr %5, align 8, !tbaa !54
  %67 = load ptr, ptr %8, align 8, !tbaa !39
  %68 = call ptr @Kit_DsdObjTruth(ptr noundef %67)
  %69 = load ptr, ptr %8, align 8, !tbaa !39
  %70 = load i32, ptr %69, align 4
  %71 = lshr i32 %70, 26
  %72 = call ptr @Kit_DsdWriteHex(ptr noundef %66, ptr noundef %68, i32 noundef %71)
  store ptr %72, ptr %5, align 8, !tbaa !54
  br label %73

73:                                               ; preds = %65, %59
  %74 = load ptr, ptr %5, align 8, !tbaa !54
  %75 = getelementptr inbounds nuw i8, ptr %74, i32 1
  store ptr %75, ptr %5, align 8, !tbaa !54
  store i8 40, ptr %74, align 1, !tbaa !56
  store i32 0, ptr %10, align 4, !tbaa !3
  br label %76

76:                                               ; preds = %116, %73
  %77 = load i32, ptr %10, align 4, !tbaa !3
  %78 = load ptr, ptr %8, align 8, !tbaa !39
  %79 = load i32, ptr %78, align 4
  %80 = lshr i32 %79, 26
  %81 = icmp ult i32 %77, %80
  br i1 %81, label %82, label %90

82:                                               ; preds = %76
  %83 = load ptr, ptr %8, align 8, !tbaa !39
  %84 = getelementptr inbounds nuw %struct.Kit_DsdObj_t_, ptr %83, i32 0, i32 1
  %85 = load i32, ptr %10, align 4, !tbaa !3
  %86 = zext i32 %85 to i64
  %87 = getelementptr inbounds nuw [0 x i16], ptr %84, i64 0, i64 %86
  %88 = load i16, ptr %87, align 2, !tbaa !58
  %89 = zext i16 %88 to i32
  store i32 %89, ptr %9, align 4, !tbaa !3
  br label %90

90:                                               ; preds = %82, %76
  %91 = phi i1 [ false, %76 ], [ true, %82 ]
  br i1 %91, label %92, label %119

92:                                               ; preds = %90
  %93 = load i32, ptr %9, align 4, !tbaa !3
  %94 = call i32 @Abc_LitIsCompl(i32 noundef %93)
  %95 = icmp ne i32 %94, 0
  br i1 %95, label %96, label %99

96:                                               ; preds = %92
  %97 = load ptr, ptr %5, align 8, !tbaa !54
  %98 = getelementptr inbounds nuw i8, ptr %97, i32 1
  store ptr %98, ptr %5, align 8, !tbaa !54
  store i8 33, ptr %97, align 1, !tbaa !56
  br label %99

99:                                               ; preds = %96, %92
  %100 = load ptr, ptr %5, align 8, !tbaa !54
  %101 = load ptr, ptr %6, align 8, !tbaa !37
  %102 = load i32, ptr %9, align 4, !tbaa !3
  %103 = call i32 @Abc_Lit2Var(i32 noundef %102)
  %104 = call ptr @Kit_DsdWrite_rec(ptr noundef %100, ptr noundef %101, i32 noundef %103)
  store ptr %104, ptr %5, align 8, !tbaa !54
  %105 = load i32, ptr %10, align 4, !tbaa !3
  %106 = load ptr, ptr %8, align 8, !tbaa !39
  %107 = load i32, ptr %106, align 4
  %108 = lshr i32 %107, 26
  %109 = sub nsw i32 %108, 1
  %110 = icmp ult i32 %105, %109
  br i1 %110, label %111, label %115

111:                                              ; preds = %99
  %112 = load i8, ptr %11, align 1, !tbaa !56
  %113 = load ptr, ptr %5, align 8, !tbaa !54
  %114 = getelementptr inbounds nuw i8, ptr %113, i32 1
  store ptr %114, ptr %5, align 8, !tbaa !54
  store i8 %112, ptr %113, align 1, !tbaa !56
  br label %115

115:                                              ; preds = %111, %99
  br label %116

116:                                              ; preds = %115
  %117 = load i32, ptr %10, align 4, !tbaa !3
  %118 = add i32 %117, 1
  store i32 %118, ptr %10, align 4, !tbaa !3
  br label %76, !llvm.loop !62

119:                                              ; preds = %90
  %120 = load ptr, ptr %5, align 8, !tbaa !54
  %121 = getelementptr inbounds nuw i8, ptr %120, i32 1
  store ptr %121, ptr %5, align 8, !tbaa !54
  store i8 41, ptr %120, align 1, !tbaa !56
  %122 = load ptr, ptr %5, align 8, !tbaa !54
  store ptr %122, ptr %4, align 8
  store i32 1, ptr %12, align 4
  br label %123

123:                                              ; preds = %119, %31, %18
  call void @llvm.lifetime.end.p0(i64 1, ptr %11) #9
  call void @llvm.lifetime.end.p0(i64 4, ptr %10) #9
  call void @llvm.lifetime.end.p0(i64 4, ptr %9) #9
  call void @llvm.lifetime.end.p0(i64 8, ptr %8) #9
  %124 = load ptr, ptr %4, align 8
  ret ptr %124
}