; Function Attrs: nofree nosync nounwind memory(readwrite, inaccessiblemem: none) uwtable
define nonnull ptr @Kit_DsdWrite_rec(ptr noundef %0, ptr noundef readonly captures(none) %1, i32 noundef %2) local_unnamed_addr #13 {
  %4 = load i16, ptr %1, align 8, !tbaa !34
  %5 = zext i16 %4 to i32
  %6 = icmp slt i32 %2, %5
  br i1 %6, label %Kit_DsdNtkObj.exit.thread, label %Kit_DsdNtkObj.exit

Kit_DsdNtkObj.exit:                               ; preds = %3
  %7 = getelementptr inbounds nuw i8, ptr %1, i64 24
  %8 = load ptr, ptr %7, align 8, !tbaa !40
  %9 = sub nsw i32 %2, %5
  %10 = sext i32 %9 to i64
  %11 = getelementptr inbounds ptr, ptr %8, i64 %10
  %12 = load ptr, ptr %11, align 8, !tbaa !41
  %13 = icmp eq ptr %12, null
  br i1 %13, label %Kit_DsdNtkObj.exit.thread, label %17

Kit_DsdNtkObj.exit.thread:                        ; preds = %3, %Kit_DsdNtkObj.exit
  %14 = trunc i32 %2 to i8
  %15 = add i8 %14, 97
  %16 = getelementptr inbounds nuw i8, ptr %0, i64 1
  store i8 %15, ptr %0, align 1, !tbaa !47
  br label %75

17:                                               ; preds = %Kit_DsdNtkObj.exit
  %18 = load i32, ptr %12, align 4
  %19 = lshr i32 %18, 6
  %20 = and i32 %19, 7
  switch i32 %20, label %24 [
    i32 1, label %21
    i32 3, label %25
    i32 4, label %23
  ]

21:                                               ; preds = %17
  tail call void @llvm.memcpy.p0.p0.i64(ptr noundef nonnull align 1 dereferenceable(7) %0, ptr noundef nonnull align 1 dereferenceable(7) @.str.2, i64 7, i1 false)
  %22 = getelementptr inbounds nuw i8, ptr %0, i64 6
  br label %75

23:                                               ; preds = %17
  br label %25

24:                                               ; preds = %17
  br label %25

25:                                               ; preds = %17, %23, %24
  %.0 = phi i8 [ 43, %23 ], [ 44, %24 ], [ 42, %17 ]
  %26 = and i32 %18, 448
  %27 = icmp eq i32 %26, 320
  br i1 %27, label %28, label %Kit_DsdWriteHex.exit

28:                                               ; preds = %25
  %29 = getelementptr inbounds nuw i8, ptr %12, i64 4
  %30 = lshr i32 %18, 10
  %31 = and i32 %30, 255
  %32 = zext nneg i32 %31 to i64
  %33 = getelementptr inbounds nuw i32, ptr %29, i64 %32
  %34 = lshr i32 %18, 26
  %35 = shl nuw i32 1, %34
  %36 = icmp sgt i32 %35, 3
  br i1 %36, label %.lr.ph.preheader.i, label %Kit_DsdWriteHex.exit

.lr.ph.preheader.i:                               ; preds = %28
  %37 = lshr i32 %35, 2
  br label %.lr.ph.i

.lr.ph.i:                                         ; preds = %.lr.ph.i, %.lr.ph.preheader.i
  %.0.in16.i = phi i32 [ %.0.i, %.lr.ph.i ], [ %37, %.lr.ph.preheader.i ]
  %.01215.i = phi ptr [ %.1.i, %.lr.ph.i ], [ %0, %.lr.ph.preheader.i ]
  %.0.i = add nsw i32 %.0.in16.i, -1
  %38 = lshr i32 %.0.i, 3
  %39 = zext nneg i32 %38 to i64
  %40 = getelementptr inbounds nuw i32, ptr %33, i64 %39
  %41 = load i32, ptr %40, align 4, !tbaa !20
  %42 = shl i32 %.0.i, 2
  %43 = and i32 %42, 28
  %44 = lshr i32 %41, %43
  %45 = and i32 %44, 15
  %46 = icmp samesign ult i32 %45, 10
  %47 = trunc nuw nsw i32 %45 to i8
  %48 = add nuw nsw i8 %47, 55
  %49 = or disjoint i8 %47, 48
  %storemerge.i = select i1 %46, i8 %49, i8 %48
  %.1.i = getelementptr inbounds nuw i8, ptr %.01215.i, i64 1
  store i8 %storemerge.i, ptr %.01215.i, align 1, !tbaa !47
  %50 = icmp samesign ugt i32 %.0.in16.i, 1
  br i1 %50, label %.lr.ph.i, label %Kit_DsdWriteHex.exit, !llvm.loop !48

Kit_DsdWriteHex.exit:                             ; preds = %.lr.ph.i, %28, %25
  %.035 = phi ptr [ %0, %25 ], [ %0, %28 ], [ %.1.i, %.lr.ph.i ]
  %51 = getelementptr inbounds nuw i8, ptr %.035, i64 1
  store i8 40, ptr %.035, align 1, !tbaa !47
  %52 = load i32, ptr %12, align 4
  %.not40 = icmp ult i32 %52, 67108864
  br i1 %.not40, label %.critedge, label %.lr.ph

.lr.ph:                                           ; preds = %Kit_DsdWriteHex.exit
  %53 = getelementptr inbounds nuw i8, ptr %12, i64 4
  br label %54

54:                                               ; preds = %.lr.ph, %71
  %indvars.iv = phi i64 [ 0, %.lr.ph ], [ %indvars.iv.next, %71 ]
  %.138 = phi ptr [ %51, %.lr.ph ], [ %.3, %71 ]
  %55 = getelementptr inbounds nuw [0 x i16], ptr %53, i64 0, i64 %indvars.iv
  %56 = load i16, ptr %55, align 2, !tbaa !49
  %57 = zext i16 %56 to i32
  %58 = and i32 %57, 1
  %.not = icmp eq i32 %58, 0
  br i1 %.not, label %61, label %59

59:                                               ; preds = %54
  %60 = getelementptr inbounds nuw i8, ptr %.138, i64 1
  store i8 33, ptr %.138, align 1, !tbaa !47
  br label %61

61:                                               ; preds = %59, %54
  %.2 = phi ptr [ %60, %59 ], [ %.138, %54 ]
  %62 = lshr i32 %57, 1
  %63 = tail call ptr @Kit_DsdWrite_rec(ptr noundef nonnull %.2, ptr noundef nonnull %1, i32 noundef %62)
  %64 = load i32, ptr %12, align 4
  %65 = lshr i32 %64, 26
  %66 = add nsw i32 %65, -1
  %67 = zext i32 %66 to i64
  %68 = icmp samesign ult i64 %indvars.iv, %67
  br i1 %68, label %69, label %71

69:                                               ; preds = %61
  %70 = getelementptr inbounds nuw i8, ptr %63, i64 1
  store i8 %.0, ptr %63, align 1, !tbaa !47
  %.pre = load i32, ptr %12, align 4
  %.pre42 = lshr i32 %.pre, 26
  br label %71

71:                                               ; preds = %61, %69
  %.pre-phi = phi i32 [ %65, %61 ], [ %.pre42, %69 ]
  %.3 = phi ptr [ %63, %61 ], [ %70, %69 ]
  %indvars.iv.next = add nuw nsw i64 %indvars.iv, 1
  %72 = zext nneg i32 %.pre-phi to i64
  %73 = icmp samesign ult i64 %indvars.iv.next, %72
  br i1 %73, label %54, label %.critedge, !llvm.loop !53

.critedge:                                        ; preds = %71, %Kit_DsdWriteHex.exit
  %.1.lcssa = phi ptr [ %51, %Kit_DsdWriteHex.exit ], [ %.3, %71 ]
  %74 = getelementptr inbounds nuw i8, ptr %.1.lcssa, i64 1
  store i8 41, ptr %.1.lcssa, align 1, !tbaa !47
  br label %75

75:                                               ; preds = %.critedge, %21, %Kit_DsdNtkObj.exit.thread
  %.034 = phi ptr [ %16, %Kit_DsdNtkObj.exit.thread ], [ %22, %21 ], [ %74, %.critedge ]
  ret ptr %.034
}